Certificate:
    Data:
        Version: 3 (0x2)
        Serial Number: 1 (0x1)
        Signature Algorithm: sha256WithRSAEncryption
        Issuer: C=US, ST=MA, L=Boston, O=UMass Lowell, CN=ca
        Validity
            Not Before: Jan 24 01:56:12 2020 GMT
            Not After : Jan 23 01:56:12 2021 GMT
        Subject: C=US, ST=MA, L=Boston, O=UMass Lowell, CN=172.17.0.2
        Subject Public Key Info:
            Public Key Algorithm: rsaEncryption
                RSA Public-Key: (2048 bit)
                Modulus:
                    00:b9:82:ac:cb:4e:d9:0c:6a:07:73:7b:96:09:b8:
                    e1:79:6e:ca:ee:9c:1a:8f:e5:eb:0e:fd:13:9e:63:
                    d3:68:e1:7f:d1:f3:c6:8c:7a:68:9d:e6:48:1f:a5:
                    52:9b:21:97:54:c7:40:11:d8:ec:77:b7:21:38:47:
                    8b:19:12:b7:93:8f:f0:26:5c:2c:02:00:29:25:0d:
                    7e:6b:5b:2e:99:e5:e6:fb:cc:e9:51:94:06:f0:e4:
                    2b:fe:c1:80:a3:3f:3c:5a:dc:52:d6:6a:f1:96:61:
                    4f:cb:46:83:46:0a:ff:6a:e6:71:0e:f5:c5:b3:68:
                    dd:6b:24:07:85:1b:00:fa:6b:2c:6a:de:f7:89:85:
                    44:7b:9e:69:55:2f:5f:72:a0:05:8c:bd:ff:65:f6:
                    a8:d9:a7:70:fe:df:7f:aa:1d:10:d7:17:34:be:05:
                    91:ba:2a:7b:72:be:d4:4f:20:36:66:3e:cd:53:c1:
                    40:bd:ad:86:e2:33:6f:91:90:29:d0:c1:c4:bb:31:
                    bc:52:6c:70:04:ad:9b:fa:74:59:eb:b3:06:ec:c3:
                    ae:83:b1:cc:f1:0a:10:df:93:db:87:ad:4e:c9:ad:
                    e8:21:00:77:c9:3c:40:98:78:12:f8:84:5c:ea:6d:
                    35:69:d3:ea:0f:19:04:c3:e7:72:45:37:10:fc:6d:
                    69:79
                Exponent: 65537 (0x10001)
        X509v3 extensions:
            X509v3 Basic Constraints: 
                CA:FALSE
            Netscape Comment: 
                OpenSSL Generated Certificate
            X509v3 Subject Key Identifier: 
                B4:FC:5E:1D:95:11:33:E4:67:77:07:0B:01:35:53:BD:77:04:28:E1
            X509v3 Authority Key Identifier: 
                keyid:71:A4:D4:03:E2:BC:2D:86:06:04:AF:41:A8:3C:99:3A:87:55:AA:8A

    Signature Algorithm: sha256WithRSAEncryption
         84:a3:58:4e:5d:5e:99:ac:08:77:9b:fd:50:51:2c:18:c8:03:
         bb:30:84:cb:57:1d:83:f7:e3:4b:43:9d:ed:23:13:ea:1d:de:
         d0:a9:c2:3e:e2:72:9b:cc:f2:9a:cb:8c:8e:bf:2d:a1:06:d3:
         83:d8:87:95:fd:1b:3c:2a:c9:91:61:8d:af:5e:e4:24:08:46:
         cb:30:6b:ec:25:eb:a3:97:b2:f0:12:33:e5:ee:d4:03:97:cf:
         1c:8b:3e:ee:6f:f2:c8:be:f8:ba:7b:4d:3c:d6:c2:95:6c:35:
         6a:7d:df:51:ae:8f:b6:81:7f:2b:b0:6b:be:d3:d0:8e:82:54:
         0b:bc:fc:65:54:c7:6a:64:36:9d:41:23:bf:78:db:bc:25:27:
         60:96:48:f4:67:2a:a9:4e:ae:a6:66:94:c1:84:19:d8:f5:31:
         c7:8b:d7:fd:86:7a:7a:cf:d5:ab:ea:ea:e5:a7:84:a3:b7:43:
         c5:3e:a5:a0:fa:88:df:52:bf:0f:a8:da:a3:1e:76:ac:86:45:
         d9:4e:a0:07:bf:10:c2:f5:50:c9:10:d1:f6:a7:bc:f6:e4:3b:
         b5:b6:19:22:3e:b0:4e:5d:69:21:a9:62:4a:e6:c8:b8:9e:26:
         1f:29:19:61:29:7b:c4:bd:4b:54:2b:d7:8e:b8:b9:bf:14:e9:
         45:cc:16:71
-----BEGIN CERTIFICATE-----
MIIDnDCCAoSgAwIBAgIBATANBgkqhkiG9w0BAQsFADBPMQswCQYDVQQGEwJVUzEL
MAkGA1UECAwCTUExDzANBgNVBAcMBkJvc3RvbjEVMBMGA1UECgwMVU1hc3MgTG93
ZWxsMQswCQYDVQQDDAJjYTAeFw0yMDAxMjQwMTU2MTJaFw0yMTAxMjMwMTU2MTJa
MFcxCzAJBgNVBAYTAlVTMQswCQYDVQQIDAJNQTEPMA0GA1UEBwwGQm9zdG9uMRUw
EwYDVQQKDAxVTWFzcyBMb3dlbGwxEzARBgNVBAMMCjE3Mi4xNy4wLjIwggEiMA0G
CSqGSIb3DQEBAQUAA4IBDwAwggEKAoIBAQC5gqzLTtkMagdze5YJuOF5bsrunBqP
5esO/ROeY9No4X/R88aMemid5kgfpVKbIZdUx0AR2Ox3tyE4R4sZEreTj/AmXCwC
ACklDX5rWy6Z5eb7zOlRlAbw5Cv+wYCjPzxa3FLWavGWYU/LRoNGCv9q5nEO9cWz
aN1rJAeFGwD6ayxq3veJhUR7nmlVL19yoAWMvf9l9qjZp3D+33+qHRDXFzS+BZG6
KntyvtRPIDZmPs1TwUC9rYbiM2+RkCnQwcS7MbxSbHAErZv6dFnrswbsw66Dsczx
ChDfk9uHrU7JreghAHfJPECYeBL4hFzqbTVp0+oPGQTD53JFNxD8bWl5AgMBAAGj
ezB5MAkGA1UdEwQCMAAwLAYJYIZIAYb4QgENBB8WHU9wZW5TU0wgR2VuZXJhdGVk
IENlcnRpZmljYXRlMB0GA1UdDgQWBBS0/F4dlREz5Gd3BwsBNVO9dwQo4TAfBgNV
HSMEGDAWgBRxpNQD4rwthgYEr0GoPJk6h1WqijANBgkqhkiG9w0BAQsFAAOCAQEA
hKNYTl1emawId5v9UFEsGMgDuzCEy1cdg/fjS0Od7SMT6h3e0KnCPuJym8zymsuM
jr8toQbTg9iHlf0bPCrJkWGNr17kJAhGyzBr7CXro5ey8BIz5e7UA5fPHIs+7m/y
yL74untNPNbClWw1an3fUa6PtoF/K7BrvtPQjoJUC7z8ZVTHamQ2nUEjv3jbvCUn
YJZI9GcqqU6upmaUwYQZ2PUxx4vX/YZ6es/Vq+rq5aeEo7dDxT6loPqI31K/D6ja
ox52rIZF2U6gB78QwvVQyRDR9qe89uQ7tbYZIj6wTl1pIaliSubIuJ4mHykZYSl7
xL1LVCvXjri5vxTpRcwWcQ==
-----END CERTIFICATE-----
