Certificate:
    Data:
        Version: 3 (0x2)
        Serial Number:
            74:7e:0b:10:00:21:1c:3e:4f:c5:1f:63:90:8b:5e:6c
        Signature Algorithm: sha256WithRSAEncryption
        Issuer: CN=127.0.0.1
        Validity
            Not Before: Dec 25 22:52:34 2022 GMT
            Not After : Mar 29 22:52:34 2025 GMT
        Subject: CN=127.0.0.1
        Subject Public Key Info:
            Public Key Algorithm: rsaEncryption
                Public-Key: (2048 bit)
                Modulus:
                    00:9b:5a:4c:d6:5b:cc:de:ec:87:45:de:80:8c:96:
                    22:89:db:6f:b5:00:18:67:b7:5a:a2:3c:ec:c7:24:
                    a9:1f:f1:5d:1a:7d:01:b6:65:0a:9f:4d:f4:05:97:
                    43:3c:8d:9f:0a:23:17:9c:52:f4:d5:11:a3:66:d6:
                    7a:3c:de:b2:15:14:be:8c:ae:3d:13:66:dd:96:2e:
                    29:88:70:ae:99:d0:ca:c4:d5:e2:6b:c0:1a:4e:71:
                    6c:3e:bb:c6:ea:c5:d1:56:3a:31:7e:c1:2c:05:63:
                    82:ba:ca:2c:1a:b0:12:fd:78:0a:75:c0:67:bb:0a:
                    e2:9c:fb:c1:31:59:90:2d:2b:31:bb:9c:dc:e9:72:
                    d5:ab:ce:62:1f:74:27:7f:3f:dc:27:34:b2:b7:be:
                    fc:7d:9d:21:c1:54:e3:44:99:62:9d:b7:83:e3:15:
                    cf:fd:54:99:15:b8:8f:02:9c:1a:5b:d7:8f:0a:46:
                    43:1e:47:42:95:72:c5:8c:18:ea:fc:d5:3b:6b:10:
                    d9:1a:0b:55:7a:fd:57:c4:e2:24:21:3f:9e:68:30:
                    60:23:b4:17:c2:c6:5a:44:1f:9d:8a:82:09:45:57:
                    49:b3:59:c0:43:f1:f4:33:7a:ce:53:51:e6:3f:26:
                    a0:c2:18:18:64:4f:fa:b6:88:30:d7:40:02:19:88:
                    67:63
                Exponent: 65537 (0x10001)
        X509v3 extensions:
            X509v3 Basic Constraints: 
                CA:FALSE
            X509v3 Subject Key Identifier: 
                48:BE:7F:50:60:E1:2B:77:63:66:15:D7:1C:CA:D1:08:CF:1D:48:27
            X509v3 Authority Key Identifier: 
                keyid:E8:58:FA:75:70:46:C0:A7:26:1A:73:BE:24:7E:10:BB:A0:EA:76:B6
                DirName:/CN=127.0.0.1
                serial:5F:3C:B9:57:B1:CE:60:F6:AC:AF:4B:F6:F4:3F:79:49:86:34:A3:26
            X509v3 Extended Key Usage: 
                TLS Web Server Authentication
            X509v3 Key Usage: 
                Digital Signature, Key Encipherment
            X509v3 Subject Alternative Name: 
                IP Address:127.0.0.1
    Signature Algorithm: sha256WithRSAEncryption
    Signature Value:
        4a:48:87:27:1f:7a:8f:8f:9b:c9:c9:46:b9:6b:92:45:c0:05:
        80:88:29:19:2b:fa:24:89:35:56:db:56:4c:b6:2a:25:4e:85:
        c1:85:8e:91:8a:9f:aa:07:b8:84:bc:47:46:d6:f8:7e:4a:0d:
        a7:0d:9e:22:0f:3d:8f:df:b1:a2:0c:6b:4d:cf:1f:40:c5:4a:
        10:0d:0d:ef:a6:d2:a4:bd:33:4e:1c:90:00:f9:0f:4a:c1:57:
        86:67:4f:97:22:0b:32:4e:a1:1c:ad:c1:52:81:13:4c:41:b1:
        8b:4f:a5:e6:f9:25:13:b9:5f:af:97:83:ff:ba:0b:9c:3f:86:
        96:60:f2:c3:80:a9:2b:75:26:a4:00:c1:77:05:21:78:c7:d8:
        bf:93:9a:52:0f:e3:6a:46:78:dc:5f:f7:0e:e0:ca:58:6e:4e:
        db:35:36:d2:a7:ea:a8:ae:11:15:eb:d7:b2:bc:e3:a4:f9:2e:
        01:5f:48:2d:02:78:fd:13:de:36:61:96:e5:b6:70:7c:17:3e:
        0f:e9:58:ba:64:6c:64:60:f8:fa:f6:49:76:cb:49:cd:08:75:
        16:e2:7f:32:f1:0d:0f:d4:53:b8:01:df:ad:62:8e:c2:63:c6:
        0c:e1:aa:29:54:e0:f4:d5:15:82:3e:cc:21:08:fa:29:b7:7d:
        91:00:78:b9
-----BEGIN CERTIFICATE-----
MIIDZDCCAkygAwIBAgIQdH4LEAAhHD5PxR9jkItebDANBgkqhkiG9w0BAQsFADAU
MRIwEAYDVQQDDAkxMjcuMC4wLjEwHhcNMjIxMjI1MjI1MjM0WhcNMjUwMzI5MjI1
MjM0WjAUMRIwEAYDVQQDDAkxMjcuMC4wLjEwggEiMA0GCSqGSIb3DQEBAQUAA4IB
DwAwggEKAoIBAQCbWkzWW8ze7IdF3oCMliKJ22+1ABhnt1qiPOzHJKkf8V0afQG2
ZQqfTfQFl0M8jZ8KIxecUvTVEaNm1no83rIVFL6Mrj0TZt2WLimIcK6Z0MrE1eJr
wBpOcWw+u8bqxdFWOjF+wSwFY4K6yiwasBL9eAp1wGe7CuKc+8ExWZAtKzG7nNzp
ctWrzmIfdCd/P9wnNLK3vvx9nSHBVONEmWKdt4PjFc/9VJkVuI8CnBpb148KRkMe
R0KVcsWMGOr81TtrENkaC1V6/VfE4iQhP55oMGAjtBfCxlpEH52KgglFV0mzWcBD
8fQzes5TUeY/JqDCGBhkT/q2iDDXQAIZiGdjAgMBAAGjgbEwga4wCQYDVR0TBAIw
ADAdBgNVHQ4EFgQUSL5/UGDhK3djZhXXHMrRCM8dSCcwTwYDVR0jBEgwRoAU6Fj6
dXBGwKcmGnO+JH4Qu6DqdrahGKQWMBQxEjAQBgNVBAMMCTEyNy4wLjAuMYIUXzy5
V7HOYPasr0v29D95SYY0oyYwEwYDVR0lBAwwCgYIKwYBBQUHAwEwCwYDVR0PBAQD
AgWgMA8GA1UdEQQIMAaHBH8AAAEwDQYJKoZIhvcNAQELBQADggEBAEpIhycfeo+P
m8nJRrlrkkXABYCIKRkr+iSJNVbbVky2KiVOhcGFjpGKn6oHuIS8R0bW+H5KDacN
niIPPY/fsaIMa03PH0DFShANDe+m0qS9M04ckAD5D0rBV4ZnT5ciCzJOoRytwVKB
E0xBsYtPpeb5JRO5X6+Xg/+6C5w/hpZg8sOAqSt1JqQAwXcFIXjH2L+TmlIP42pG
eNxf9w7gylhuTts1NtKn6qiuERXr17K846T5LgFfSC0CeP0T3jZhluW2cHwXPg/p
WLpkbGRg+Pr2SXbLSc0IdRbifzLxDQ/UU7gB361ijsJjxgzhqilU4PTVFYI+zCEI
+im3fZEAeLk=
-----END CERTIFICATE-----
-----BEGIN PRIVATE KEY-----
MIIEvgIBADANBgkqhkiG9w0BAQEFAASCBKgwggSkAgEAAoIBAQCbWkzWW8ze7IdF
3oCMliKJ22+1ABhnt1qiPOzHJKkf8V0afQG2ZQqfTfQFl0M8jZ8KIxecUvTVEaNm
1no83rIVFL6Mrj0TZt2WLimIcK6Z0MrE1eJrwBpOcWw+u8bqxdFWOjF+wSwFY4K6
yiwasBL9eAp1wGe7CuKc+8ExWZAtKzG7nNzpctWrzmIfdCd/P9wnNLK3vvx9nSHB
VONEmWKdt4PjFc/9VJkVuI8CnBpb148KRkMeR0KVcsWMGOr81TtrENkaC1V6/VfE
4iQhP55oMGAjtBfCxlpEH52KgglFV0mzWcBD8fQzes5TUeY/JqDCGBhkT/q2iDDX
QAIZiGdjAgMBAAECggEALuVd75GLsTm2hhVqOcYyi+n1eS6br2dukS4SDfWXpkBe
qhnVVAGBaOCHys5EKjnYKh+4x2RVayJlcKxK/yf8mxeFhAMvBbXWKzkpKXpWgrFA
HJYyQPOfHVHo6rEVlZZ8oGp1uX1HtCK7enaARNglC2Xaxnv79D8PdHMc+TA/sRpx
ec2qNmxslsczfBnMuxqYOKKbYieo+YI+ZmQiSPOgzjR9wFmYfhWwSlRhpcwoHAp1
CrzG0F4zKA16yziwRoBJ93xqAJKawaxBLUgZJ4vK6CqdD8OfWSwwMmOpe5f1Ktst
qBH3JIr+/jziSLMQj00FZY3knz/DILWiuzJlPXNGzQKBgQDbQ++SL2lBRU/Tbhs1
lQabM3MZNuviIJ1bBDuVTm4Zt5j6vgnpGVoMRuEArOiI6DeVoj6RktKd8NSE7xD7
gPcBwA2OjqvmfnVnIAnLnBQDOusHi/LJ69MFXrD5MLH6pZgHyjBYvTAqv8VXrLqd
DbH44vSOM0T/powkaLLhSoB77QKBgQC1YTe0iVyOyclKFkhnPMVJegmjBGsM1rXt
sWncVxQUcs5xlTgypVitgd9JuWNKBRcD8YvtcUcWWB8DvZ1FPeQHgJPRrYUwPIap
MDgXGYq8WWjClieUumDbrdZEjVjrwmcSGA+8KS3UYiGfcXlR3woPLym5DwZh0ehZ
Gp0kbxYmjwKBgE9n/Pzd+qpOpagWOfhfrfLK4SYCg85yrUnm8IUT0D+0A8zawdAP
BFNp39ZUyCm8n1SrWylxGKFmNDCoO2g5vjp+COrVtF9W8MGWErYQIhdBYRhskFKb
+uH49vJntizlh3dau8OHUEhLBvbHcRWrfgZ6esJ8wsIq2Jne6Nk6F+nJAoGBAK0S
/1y+VhvKYNDZQm2Ah6D9WoS7iorNtvwA9srSLM72Xhf0E5QAQwYNj0uCI0RWZwfU
TXldRkAEBlRDcvbHf/fIsUS7FwRYPQbkhCFGtiPUDSrgrRQ2ZIY68uKnHdqZvlB9
tUYO5TRsDzldxi5hbe/fSSjVNXnSGqwrwRcrCS/xAoGBAJpukzN+c4EHmTEoVtcZ
eeunAVcRpJvliJjwqH1k4eqtIW16s9/iJZmHhtOF5/YKPxHt0ntGoR5IeoXO+iUm
FZs6aT7ZI5gW1PjyLMdwLqu4yiDRWGX/a3FmBDfCQuUPpyhgJ/I2YHrnn0QA9LGF
t5XM0c5U+x/AEslY2h4Z6KsM
-----END PRIVATE KEY-----
