Certificate:
    Data:
        Version: 3 (0x2)
        Serial Number:
            b7:64:06:10:c7:2f:1c:a0:68:f2:98:1a:a7:04:09:c7
        Signature Algorithm: sha256WithRSAEncryption
        Issuer: CN=127.0.0.1
        Validity
            Not Before: Dec 22 17:10:41 2022 GMT
            Not After : Mar 26 17:10:41 2025 GMT
        Subject: CN=192.168.0.124
        Subject Public Key Info:
            Public Key Algorithm: rsaEncryption
                Public-Key: (2048 bit)
                Modulus:
                    00:d2:f1:c0:b1:32:46:4b:ee:c8:7a:74:0c:45:82:
                    1a:9a:aa:09:cc:84:55:29:16:6c:9c:2f:31:7e:07:
                    77:7e:d5:4f:81:0b:40:52:99:d1:ad:b9:b1:fc:94:
                    a9:30:ab:48:fd:02:dc:7b:30:99:e6:3d:46:b9:c5:
                    da:22:85:69:88:e3:0b:fd:d9:78:5f:31:c5:24:46:
                    87:9b:11:84:35:93:60:81:c6:6b:97:90:f4:db:17:
                    28:b1:5e:a9:6d:7e:a4:61:43:be:4f:0a:f6:66:fd:
                    45:bc:b8:62:ee:3a:a4:61:ad:7e:66:b6:b4:32:33:
                    7f:ca:76:6c:0e:8b:3b:84:07:d2:9b:e6:aa:84:88:
                    a8:d6:9e:26:cc:07:c4:cb:ec:22:3f:51:11:4a:1e:
                    80:56:cb:4b:0c:ac:fa:0a:5d:57:83:e6:8a:be:f3:
                    c1:45:49:af:07:af:52:62:5a:37:5c:a2:0f:19:4a:
                    b4:f4:8b:7c:ee:11:18:49:ab:30:d5:62:04:0b:b0:
                    db:08:a4:28:3a:15:fa:ac:80:30:d0:b5:b2:1e:bd:
                    63:5d:25:36:5b:10:7c:f5:05:56:8e:26:6a:61:cf:
                    76:ac:ac:12:44:20:d9:cd:c2:d0:4e:cd:7c:9e:59:
                    45:d4:a4:b2:44:6b:83:c0:7f:bc:92:f8:b4:a8:c9:
                    ee:b3
                Exponent: 65537 (0x10001)
        X509v3 extensions:
            X509v3 Basic Constraints: 
                CA:FALSE
            X509v3 Subject Key Identifier: 
                EF:60:FA:FF:7F:DE:1E:B3:7B:27:FB:00:36:85:E9:D3:09:30:98:44
            X509v3 Authority Key Identifier: 
                keyid:E8:58:FA:75:70:46:C0:A7:26:1A:73:BE:24:7E:10:BB:A0:EA:76:B6
                DirName:/CN=127.0.0.1
                serial:5F:3C:B9:57:B1:CE:60:F6:AC:AF:4B:F6:F4:3F:79:49:86:34:A3:26
            X509v3 Extended Key Usage: 
                TLS Web Server Authentication
            X509v3 Key Usage: 
                Digital Signature, Key Encipherment
            X509v3 Subject Alternative Name: 
                IP Address:192.168.0.124
    Signature Algorithm: sha256WithRSAEncryption
    Signature Value:
        67:77:89:44:a8:43:3b:4a:6a:3b:cd:d2:93:e4:b8:6f:a9:80:
        5d:97:f7:39:88:7f:31:cf:43:76:44:57:95:0c:51:e2:f4:b1:
        c2:f3:c9:91:b3:5d:62:86:be:d5:e1:a5:d5:04:52:fd:b3:67:
        50:f5:30:61:5e:7a:4d:b6:69:fe:36:fa:ad:65:7c:76:f5:8e:
        78:77:01:b9:b3:cf:c3:8e:ef:a7:d7:93:6c:2a:1b:f2:d5:3c:
        fa:9e:2b:78:26:dc:53:e6:f8:6b:e2:68:74:b6:bb:3a:57:3e:
        79:d8:b7:f8:15:f7:94:50:0f:77:0a:e6:bb:0a:21:85:b0:2b:
        b4:19:67:75:3b:53:c0:0d:f3:d5:03:30:bd:a6:e2:5a:28:04:
        46:d5:c0:c7:1c:27:5c:9c:bf:7e:47:49:d4:5f:c4:cc:a7:74:
        48:70:2c:a1:89:c9:3a:de:d8:8e:21:66:ce:5c:97:38:ff:50:
        1f:f7:8c:31:67:f7:25:a5:41:7a:25:db:83:15:a0:0a:70:15:
        c5:d2:7e:0d:e1:35:d0:cc:d8:4c:47:7d:aa:c7:0e:f5:db:01:
        24:10:8c:4b:b0:8f:ec:4b:26:f9:35:0a:38:7f:8a:d2:07:f5:
        77:48:c4:87:bc:b5:8f:b8:e5:2d:fb:87:09:95:8e:83:63:c5:
        88:af:19:35
-----BEGIN CERTIFICATE-----
MIIDaTCCAlGgAwIBAgIRALdkBhDHLxygaPKYGqcECccwDQYJKoZIhvcNAQELBQAw
FDESMBAGA1UEAwwJMTI3LjAuMC4xMB4XDTIyMTIyMjE3MTA0MVoXDTI1MDMyNjE3
MTA0MVowGDEWMBQGA1UEAwwNMTkyLjE2OC4wLjEyNDCCASIwDQYJKoZIhvcNAQEB
BQADggEPADCCAQoCggEBANLxwLEyRkvuyHp0DEWCGpqqCcyEVSkWbJwvMX4Hd37V
T4ELQFKZ0a25sfyUqTCrSP0C3HswmeY9RrnF2iKFaYjjC/3ZeF8xxSRGh5sRhDWT
YIHGa5eQ9NsXKLFeqW1+pGFDvk8K9mb9Rby4Yu46pGGtfma2tDIzf8p2bA6LO4QH
0pvmqoSIqNaeJswHxMvsIj9REUoegFbLSwys+gpdV4Pmir7zwUVJrwevUmJaN1yi
DxlKtPSLfO4RGEmrMNViBAuw2wikKDoV+qyAMNC1sh69Y10lNlsQfPUFVo4mamHP
dqysEkQg2c3C0E7NfJ5ZRdSkskRrg8B/vJL4tKjJ7rMCAwEAAaOBsTCBrjAJBgNV
HRMEAjAAMB0GA1UdDgQWBBTvYPr/f94es3sn+wA2henTCTCYRDBPBgNVHSMESDBG
gBToWPp1cEbApyYac74kfhC7oOp2tqEYpBYwFDESMBAGA1UEAwwJMTI3LjAuMC4x
ghRfPLlXsc5g9qyvS/b0P3lJhjSjJjATBgNVHSUEDDAKBggrBgEFBQcDATALBgNV
HQ8EBAMCBaAwDwYDVR0RBAgwBocEwKgAfDANBgkqhkiG9w0BAQsFAAOCAQEAZ3eJ
RKhDO0pqO83Sk+S4b6mAXZf3OYh/Mc9DdkRXlQxR4vSxwvPJkbNdYoa+1eGl1QRS
/bNnUPUwYV56TbZp/jb6rWV8dvWOeHcBubPPw47vp9eTbCob8tU8+p4reCbcU+b4
a+JodLa7Olc+edi3+BX3lFAPdwrmuwohhbArtBlndTtTwA3z1QMwvabiWigERtXA
xxwnXJy/fkdJ1F/EzKd0SHAsoYnJOt7YjiFmzlyXOP9QH/eMMWf3JaVBeiXbgxWg
CnAVxdJ+DeE10MzYTEd9qscO9dsBJBCMS7CP7Esm+TUKOH+K0gf1d0jEh7y1j7jl
LfuHCZWOg2PFiK8ZNQ==
-----END CERTIFICATE-----
-----BEGIN PRIVATE KEY-----
MIIEvQIBADANBgkqhkiG9w0BAQEFAASCBKcwggSjAgEAAoIBAQDS8cCxMkZL7sh6
dAxFghqaqgnMhFUpFmycLzF+B3d+1U+BC0BSmdGtubH8lKkwq0j9Atx7MJnmPUa5
xdoihWmI4wv92XhfMcUkRoebEYQ1k2CBxmuXkPTbFyixXqltfqRhQ75PCvZm/UW8
uGLuOqRhrX5mtrQyM3/KdmwOizuEB9Kb5qqEiKjWnibMB8TL7CI/URFKHoBWy0sM
rPoKXVeD5oq+88FFSa8Hr1JiWjdcog8ZSrT0i3zuERhJqzDVYgQLsNsIpCg6Ffqs
gDDQtbIevWNdJTZbEHz1BVaOJmphz3asrBJEINnNwtBOzXyeWUXUpLJEa4PAf7yS
+LSoye6zAgMBAAECggEAIXkSQiv/oqn77w5+KgN4tEU6M9Vl7BSuXGRSvrRxnlM7
//aomNLmxmH6n+F5LYtolBmBohy2tyXPFMiUEjlIY1vf+cKqCrULmvOELjOr3pKJ
1F4HkbADYsa8gtTKHuFjNTn6N3G+Yt5a1BUQQcxVbFiK/8KLOpIYe6iqAe7PHWaU
eEwNSpPfb0z7W/VzZ4YlGGtsa/F0QFDvbDqwLTsjJX6tmp3FmZ5ejlPLAutzYXSa
OmCZLWnSQEbR040KhnphccTzNPcK/TizEqPkhHAc5X/ZDzC5qWYtjHSF0MqJBjUi
qiCloRkOZJpCxnl3AG+U6aA7SSx4hd/t7FbUPFIStQKBgQD4NlXNVnVVlPbpOEPk
qbtYgckTNtvBhyW9tCNgPl9ffmXC/GMc/M4vH+GieyIkCR0HuNZf7wroH0OFuzFH
njIaj97dDGEgmVjKi6LkSsRa6c4a7B4S/zqPAoFJL7OYSk/uoH5FlimX2/ELyBOu
y2amKpfQT9qnekswCQB4xUD89wKBgQDZkBQBruPTxnlZ79xC+D4jvKgobms/RBpj
h9K9KRi0l+09DPvkCvEWs6UJbaz44MhAjJvHYKIBrBRhJ37+ELngpIOZ68/TTII/
qlYma8KC/zP5XB8U1PcmnIQekXUtFLmRcdNKV1LB8mTkQFEGL6OunRxbOAiXMQ+R
S678ScjZJQKBgQCnlUfpE261EZaDcBGm2VI8N6Ri7K8CwxSgOHeKC5KpDtX2CCGC
+Mzc1FGrOiea3OxUwl869lIO1szoBbMH/68kb+6woCMTt3VTi2O3byOTnjghxTmo
6dnHpJFVsHc5YzMEkievI+uBNGZS5gskAQCVQDyv0Lp4SQFqtSk0YTm3kQKBgAkf
XXdkmfD7VYNL53R3bEObWYG4f467kE+0FkYQPxTzeeMhdD5vpwRIrBblHmehJURv
oOiPSLvBN2mLemu0z9Z3j30YwjId9ygsQEiEJDfR85/1GOiKtYJM9c1CVCN7xvwu
RanMV5ACVfCsMbmMrdRYiiPZCaMtT3XMMp4pid5xAoGAVE7XfwobTEEqTZ3TnxGC
Buw6YgnsdsTudcwguTltTvnG0S3dHFBbY/PKFQxiUAyTV6a7yjuWpspDXfcszouF
0LHM8iklkFNIeovFwPs2WJmRHuY/m/ldDm5sIJMxUQl3wFlIrlka2E6eozTdLPDr
vZHx6LrfeGrvBrliZxSiYq0=
-----END PRIVATE KEY-----
