Certificate:
    Data:
        Version: 3 (0x2)
        Serial Number: 2 (0x2)
        Signature Algorithm: sha256WithRSAEncryption
        Issuer: C=US, ST=MA, L=Boston, O=UMass Lowell, CN=ca
        Validity
            Not Before: Jan 24 01:57:11 2020 GMT
            Not After : Jan 23 01:57:11 2021 GMT
        Subject: C=US, ST=MA, L=Boston, O=UMass Lowell, CN=172.17.0.3
        Subject Public Key Info:
            Public Key Algorithm: rsaEncryption
                RSA Public-Key: (2048 bit)
                Modulus:
                    00:e4:82:ce:f2:70:ea:09:66:a5:36:6e:d5:4e:25:
                    b2:dd:c2:0d:c4:8d:38:12:51:cd:f4:ee:45:24:fb:
                    cd:93:f6:c9:b3:3c:4f:c3:97:f2:82:2a:c5:cf:47:
                    19:8e:8c:3c:98:88:91:35:9c:27:9b:5d:8a:46:fd:
                    d5:a3:05:67:b2:2d:16:66:34:6f:c3:8b:d3:c7:62:
                    2e:a4:7b:57:24:56:48:01:b2:1c:7c:46:e0:62:70:
                    11:fe:2b:7f:1d:e1:00:ec:11:60:1c:84:0b:56:9b:
                    04:2d:b0:57:53:1c:04:68:ff:36:7b:eb:41:10:6d:
                    99:90:4e:78:d8:e1:d0:04:54:50:73:84:df:05:66:
                    ab:82:0a:35:04:5a:59:58:88:ba:6e:80:62:09:db:
                    45:c5:77:01:92:17:d2:17:26:f0:a4:43:09:b3:d9:
                    6d:f4:04:08:15:52:13:44:3b:e7:84:24:1d:5c:76:
                    a0:8b:d3:72:02:6c:b5:04:76:28:31:63:0b:53:ec:
                    7e:ef:73:76:cf:5a:9a:5e:cb:44:df:ff:72:fc:aa:
                    9b:e2:31:91:4f:ee:64:03:86:5d:0b:05:f7:40:2f:
                    02:a9:71:10:2d:7d:b6:8d:9d:37:38:0c:48:a1:c4:
                    1c:40:e7:46:df:31:bf:3e:50:89:91:2b:fc:b2:35:
                    ed:19
                Exponent: 65537 (0x10001)
        X509v3 extensions:
            X509v3 Basic Constraints: 
                CA:FALSE
            Netscape Comment: 
                OpenSSL Generated Certificate
            X509v3 Subject Key Identifier: 
                28:33:55:4E:D6:6A:79:EA:3C:A2:BE:3B:05:49:F1:B7:ED:C6:9F:E6
            X509v3 Authority Key Identifier: 
                keyid:71:A4:D4:03:E2:BC:2D:86:06:04:AF:41:A8:3C:99:3A:87:55:AA:8A

    Signature Algorithm: sha256WithRSAEncryption
         19:e9:68:bb:74:b1:f1:fa:c4:a2:ba:15:eb:ac:2b:16:d9:bb:
         ba:d9:a9:6c:ef:89:49:2e:14:1e:53:f3:b2:c6:83:e4:9d:4f:
         c9:af:7c:13:3e:9a:dd:2e:bc:1c:1c:44:41:e3:ba:96:c0:53:
         df:09:ee:7a:89:13:72:f1:83:1e:6a:2d:2b:c1:df:d4:fe:59:
         40:75:75:c0:3f:93:a6:58:3b:61:63:e7:52:3e:2a:66:89:b5:
         e1:b7:7e:97:22:19:ff:35:2b:5f:07:70:1b:b5:67:8a:a0:36:
         91:c5:51:09:74:fb:8f:b0:fa:e6:09:e4:14:58:3d:16:f4:85:
         a1:5b:ac:8c:57:e4:06:da:4c:69:e4:7e:c3:86:a4:45:47:7a:
         b5:01:b5:06:e5:d3:29:83:13:e6:1d:4e:65:ea:17:24:4f:ef:
         bc:0d:02:aa:de:37:37:93:f5:b7:16:65:99:7f:cd:86:a6:01:
         c2:2d:24:fd:6d:2c:7e:de:31:4a:e5:63:af:44:2b:14:41:fa:
         14:df:80:d9:85:9a:05:9a:3c:2d:be:63:f5:4f:5a:25:65:86:
         47:4c:53:e2:c3:4a:f6:1a:d3:78:86:f8:d2:df:83:f8:e5:0f:
         10:11:9a:32:e5:b0:52:c5:51:4e:b2:c3:95:79:8c:03:9f:e8:
         4c:e5:16:5b
-----BEGIN CERTIFICATE-----
MIIDnDCCAoSgAwIBAgIBAjANBgkqhkiG9w0BAQsFADBPMQswCQYDVQQGEwJVUzEL
MAkGA1UECAwCTUExDzANBgNVBAcMBkJvc3RvbjEVMBMGA1UECgwMVU1hc3MgTG93
ZWxsMQswCQYDVQQDDAJjYTAeFw0yMDAxMjQwMTU3MTFaFw0yMTAxMjMwMTU3MTFa
MFcxCzAJBgNVBAYTAlVTMQswCQYDVQQIDAJNQTEPMA0GA1UEBwwGQm9zdG9uMRUw
EwYDVQQKDAxVTWFzcyBMb3dlbGwxEzARBgNVBAMMCjE3Mi4xNy4wLjMwggEiMA0G
CSqGSIb3DQEBAQUAA4IBDwAwggEKAoIBAQDkgs7ycOoJZqU2btVOJbLdwg3EjTgS
Uc307kUk+82T9smzPE/Dl/KCKsXPRxmOjDyYiJE1nCebXYpG/dWjBWeyLRZmNG/D
i9PHYi6ke1ckVkgBshx8RuBicBH+K38d4QDsEWAchAtWmwQtsFdTHARo/zZ760EQ
bZmQTnjY4dAEVFBzhN8FZquCCjUEWllYiLpugGIJ20XFdwGSF9IXJvCkQwmz2W30
BAgVUhNEO+eEJB1cdqCL03ICbLUEdigxYwtT7H7vc3bPWppey0Tf/3L8qpviMZFP
7mQDhl0LBfdALwKpcRAtfbaNnTc4DEihxBxA50bfMb8+UImRK/yyNe0ZAgMBAAGj
ezB5MAkGA1UdEwQCMAAwLAYJYIZIAYb4QgENBB8WHU9wZW5TU0wgR2VuZXJhdGVk
IENlcnRpZmljYXRlMB0GA1UdDgQWBBQoM1VO1mp56jyivjsFSfG37caf5jAfBgNV
HSMEGDAWgBRxpNQD4rwthgYEr0GoPJk6h1WqijANBgkqhkiG9w0BAQsFAAOCAQEA
Gelou3Sx8frEoroV66wrFtm7utmpbO+JSS4UHlPzssaD5J1Pya98Ez6a3S68HBxE
QeO6lsBT3wnueokTcvGDHmotK8Hf1P5ZQHV1wD+Tplg7YWPnUj4qZom14bd+lyIZ
/zUrXwdwG7VniqA2kcVRCXT7j7D65gnkFFg9FvSFoVusjFfkBtpMaeR+w4akRUd6
tQG1BuXTKYMT5h1OZeoXJE/vvA0Cqt43N5P1txZlmX/NhqYBwi0k/W0sft4xSuVj
r0QrFEH6FN+A2YWaBZo8Lb5j9U9aJWWGR0xT4sNK9hrTeIb40t+D+OUPEBGaMuWw
UsVRTrLDlXmMA5/oTOUWWw==
-----END CERTIFICATE-----
